	.cpu cortex-m0
	.fpu softvfp
	.eabi_attribute 20, 1
	.eabi_attribute 21, 1
	.eabi_attribute 23, 3
	.eabi_attribute 24, 1
	.eabi_attribute 25, 1
	.eabi_attribute 26, 1
	.eabi_attribute 30, 6
	.eabi_attribute 34, 0
	.eabi_attribute 18, 4
	.code	16
	.file	"libs.c"
	.text
.Ltext0:
	.cfi_sections	.debug_frame
	.global	RCC_AHBENR_IOPBEN
	.data
	.align	2
	.type	RCC_AHBENR_IOPBEN, %object
	.size	RCC_AHBENR_IOPBEN, 4
RCC_AHBENR_IOPBEN:
	.word	393216
	.global	GPIOB_MODER_OUTPUT
	.align	2
	.type	GPIOB_MODER_OUTPUT, %object
	.size	GPIOB_MODER_OUTPUT, 4
GPIOB_MODER_OUTPUT:
	.word	21845
	.global	PORTA_PUPDR
	.align	2
	.type	PORTA_PUPDR, %object
	.size	PORTA_PUPDR, 4
PORTA_PUPDR:
	.word	85
	.global	PORTA_MODERIN
	.align	2
	.type	PORTA_MODERIN, %object
	.size	PORTA_MODERIN, 4
PORTA_MODERIN:
	.word	671088640
	.text
	.align	2
	.global	initialise
	.code	16
	.thumb_func
	.type	initialise, %function
initialise:
.LFB0:
	.file 1 "libs.c"
	.loc 1 11 0
	.cfi_startproc
	push	{r7, lr}
	.cfi_def_cfa_offset 8
	.cfi_offset 7, -8
	.cfi_offset 14, -4
	add	r7, sp, #0
	.cfi_def_cfa_register 7
	.loc 1 13 0
	ldr	r2, .L2
	ldr	r3, .L2
	ldr	r1, [r3, #20]
	ldr	r3, .L2+4
	ldr	r3, [r3]
	orr	r3, r1
	str	r3, [r2, #20]
	.loc 1 15 0
	ldr	r2, .L2+8
	ldr	r3, .L2+8
	ldr	r1, [r3]
	ldr	r3, .L2+12
	ldr	r3, [r3]
	orr	r3, r1
	str	r3, [r2]
	.loc 1 17 0
	mov	r3, #144
	lsl	r3, r3, #23
	mov	r2, #144
	lsl	r2, r2, #23
	ldr	r1, [r2, #12]
	ldr	r2, .L2+16
	ldr	r2, [r2]
	orr	r2, r1
	str	r2, [r3, #12]
	.loc 1 18 0
	mov	r3, #144
	lsl	r3, r3, #23
	mov	r2, #144
	lsl	r2, r2, #23
	ldr	r1, [r2]
	ldr	r2, .L2+20
	ldr	r2, [r2]
	orr	r2, r1
	str	r2, [r3]
	.loc 1 19 0
	mov	sp, r7
	@ sp needed
	pop	{r7, pc}
.L3:
	.align	2
.L2:
	.word	1073876992
	.word	RCC_AHBENR_IOPBEN
	.word	1207960576
	.word	GPIOB_MODER_OUTPUT
	.word	PORTA_PUPDR
	.word	PORTA_MODERIN
	.cfi_endproc
.LFE0:
	.size	initialise, .-initialise
	.align	2
	.global	initialise_timer
	.code	16
	.thumb_func
	.type	initialise_timer, %function
initialise_timer:
.LFB1:
	.loc 1 21 0
	.cfi_startproc
	push	{r7, lr}
	.cfi_def_cfa_offset 8
	.cfi_offset 7, -8
	.cfi_offset 14, -4
	sub	sp, sp, #8
	.cfi_def_cfa_offset 16
	add	r7, sp, #0
	.cfi_def_cfa_register 7
	mov	r2, r0
	add	r3, r7, #6
	strh	r2, [r3]
	add	r3, r7, #4
	add	r2, r1, #0
	strh	r2, [r3]
	.loc 1 22 0
	ldr	r3, .L5
	ldr	r2, .L5
	ldr	r2, [r2, #28]
	mov	r1, #16
	orr	r2, r1
	str	r2, [r3, #28]
	.loc 1 23 0
	ldr	r3, .L5+4
	add	r2, r7, #6
	ldrh	r2, [r2]
	str	r2, [r3, #44]
	.loc 1 24 0
	ldr	r2, .L5+4
	add	r3, r7, #4
	ldrh	r3, [r3]
	strh	r3, [r2, #40]
	.loc 1 25 0
	ldr	r2, .L5+4
	ldr	r3, .L5+4
	ldrh	r3, [r3, #12]
	uxth	r3, r3
	mov	r1, #1
	orr	r3, r1
	uxth	r3, r3
	strh	r3, [r2, #12]
	.loc 1 26 0
	ldr	r3, .L5+8
	ldr	r2, .L5+8
	ldr	r2, [r2]
	mov	r1, #128
	lsl	r1, r1, #10
	orr	r2, r1
	str	r2, [r3]
	.loc 1 27 0
	ldr	r2, .L5+4
	ldr	r3, .L5+4
	ldrh	r3, [r3]
	uxth	r3, r3
	mov	r1, #128
	orr	r3, r1
	uxth	r3, r3
	strh	r3, [r2]
	.loc 1 28 0
	ldr	r2, .L5+4
	ldr	r3, .L5+4
	ldrh	r3, [r3]
	uxth	r3, r3
	mov	r1, #1
	orr	r3, r1
	uxth	r3, r3
	strh	r3, [r2]
	.loc 1 29 0
	mov	sp, r7
	add	sp, sp, #8
	@ sp needed
	pop	{r7, pc}
.L6:
	.align	2
.L5:
	.word	1073876992
	.word	1073745920
	.word	-536813312
	.cfi_endproc
.LFE1:
	.size	initialise_timer, .-initialise_timer
	.align	2
	.global	reset_timer
	.code	16
	.thumb_func
	.type	reset_timer, %function
reset_timer:
.LFB2:
	.loc 1 31 0
	.cfi_startproc
	push	{r7, lr}
	.cfi_def_cfa_offset 8
	.cfi_offset 7, -8
	.cfi_offset 14, -4
	add	r7, sp, #0
	.cfi_def_cfa_register 7
	.loc 1 32 0
	ldr	r2, .L8
	ldr	r3, .L8
	ldrh	r3, [r3, #16]
	uxth	r3, r3
	mov	r1, #1
	bic	r3, r1
	uxth	r3, r3
	strh	r3, [r2, #16]
	.loc 1 34 0
	mov	sp, r7
	@ sp needed
	pop	{r7, pc}
.L9:
	.align	2
.L8:
	.word	1073745920
	.cfi_endproc
.LFE2:
	.size	reset_timer, .-reset_timer
	.align	2
	.global	setPSC
	.code	16
	.thumb_func
	.type	setPSC, %function
setPSC:
.LFB3:
	.loc 1 36 0
	.cfi_startproc
	push	{r7, lr}
	.cfi_def_cfa_offset 8
	.cfi_offset 7, -8
	.cfi_offset 14, -4
	sub	sp, sp, #8
	.cfi_def_cfa_offset 16
	add	r7, sp, #0
	.cfi_def_cfa_register 7
	mov	r2, r0
	add	r3, r7, #6
	strh	r2, [r3]
	.loc 1 37 0
	ldr	r2, .L11
	add	r3, r7, #6
	ldrh	r3, [r3]
	strh	r3, [r2, #40]
	.loc 1 38 0
	mov	sp, r7
	add	sp, sp, #8
	@ sp needed
	pop	{r7, pc}
.L12:
	.align	2
.L11:
	.word	1073745920
	.cfi_endproc
.LFE3:
	.size	setPSC, .-setPSC
	.align	2
	.global	initialise_ADC
	.code	16
	.thumb_func
	.type	initialise_ADC, %function
initialise_ADC:
.LFB4:
	.loc 1 40 0
	.cfi_startproc
	push	{r7, lr}
	.cfi_def_cfa_offset 8
	.cfi_offset 7, -8
	.cfi_offset 14, -4
	add	r7, sp, #0
	.cfi_def_cfa_register 7
	.loc 1 41 0
	ldr	r3, .L15
	ldr	r2, .L15
	ldr	r2, [r2, #20]
	mov	r1, #128
	lsl	r1, r1, #10
	orr	r2, r1
	str	r2, [r3, #20]
	.loc 1 42 0
	ldr	r3, .L15
	ldr	r2, .L15
	ldr	r2, [r2, #24]
	mov	r1, #128
	lsl	r1, r1, #2
	orr	r2, r1
	str	r2, [r3, #24]
	.loc 1 43 0
	mov	r3, #144
	lsl	r3, r3, #23
	mov	r2, #144
	lsl	r2, r2, #23
	ldr	r2, [r2]
	mov	r1, #240
	lsl	r1, r1, #6
	orr	r2, r1
	str	r2, [r3]
	.loc 1 44 0
	ldr	r3, .L15+4
	ldr	r2, .L15+4
	ldr	r2, [r2, #12]
	mov	r1, #16
	orr	r2, r1
	str	r2, [r3, #12]
	.loc 1 45 0
	ldr	r3, .L15+4
	ldr	r2, .L15+4
	ldr	r2, [r2, #8]
	mov	r1, #1
	orr	r2, r1
	str	r2, [r3, #8]
	.loc 1 46 0
	mov	r8, r8
.L14:
	.loc 1 46 0 is_stmt 0 discriminator 3
	ldr	r3, .L15+4
	ldr	r3, [r3]
	cmp	r3, #0
	beq	.L14
	.loc 1 48 0 is_stmt 1
	mov	sp, r7
	@ sp needed
	pop	{r7, pc}
.L16:
	.align	2
.L15:
	.word	1073876992
	.word	1073816576
	.cfi_endproc
.LFE4:
	.size	initialise_ADC, .-initialise_ADC
	.align	2
	.global	getPOT
	.code	16
	.thumb_func
	.type	getPOT, %function
getPOT:
.LFB5:
	.loc 1 50 0
	.cfi_startproc
	push	{r7, lr}
	.cfi_def_cfa_offset 8
	.cfi_offset 7, -8
	.cfi_offset 14, -4
	sub	sp, sp, #16
	.cfi_def_cfa_offset 24
	add	r7, sp, #0
	.cfi_def_cfa_register 7
	mov	r2, r0
	add	r3, r7, #7
	strb	r2, [r3]
	.loc 1 51 0
	mov	r3, #15
	add	r3, r7, r3
	mov	r2, #0
	strb	r2, [r3]
	.loc 1 52 0
	ldr	r3, .L23
	ldr	r2, .L23
	ldr	r2, [r2, #8]
	mov	r1, #1
	bic	r2, r1
	str	r2, [r3, #8]
	.loc 1 53 0
	add	r3, r7, #7
	ldrb	r3, [r3]
	cmp	r3, #0
	bne	.L18
	.loc 1 54 0
	ldr	r3, .L23
	ldr	r2, .L23
	ldr	r2, [r2, #40]
	mov	r1, #64
	bic	r2, r1
	str	r2, [r3, #40]
	.loc 1 55 0
	ldr	r3, .L23
	ldr	r2, .L23
	ldr	r2, [r2, #40]
	mov	r1, #32
	orr	r2, r1
	str	r2, [r3, #40]
	b	.L19
.L18:
	.loc 1 57 0
	add	r3, r7, #7
	ldrb	r3, [r3]
	cmp	r3, #1
	bne	.L19
	.loc 1 58 0
	ldr	r3, .L23
	ldr	r2, .L23
	ldr	r2, [r2, #40]
	mov	r1, #32
	bic	r2, r1
	str	r2, [r3, #40]
	.loc 1 59 0
	ldr	r3, .L23
	ldr	r2, .L23
	ldr	r2, [r2, #40]
	mov	r1, #64
	orr	r2, r1
	str	r2, [r3, #40]
.L19:
	.loc 1 62 0
	ldr	r3, .L23
	ldr	r2, .L23
	ldr	r2, [r2, #8]
	mov	r1, #1
	orr	r2, r1
	str	r2, [r3, #8]
	.loc 1 63 0
	mov	r8, r8
.L20:
	.loc 1 63 0 is_stmt 0 discriminator 3
	ldr	r3, .L23
	ldr	r3, [r3]
	cmp	r3, #0
	beq	.L20
	.loc 1 64 0 is_stmt 1
	ldr	r3, .L23
	ldr	r2, .L23
	ldr	r2, [r2, #8]
	mov	r1, #4
	orr	r2, r1
	str	r2, [r3, #8]
	.loc 1 65 0
	mov	r8, r8
.L21:
	.loc 1 65 0 is_stmt 0 discriminator 2
	ldr	r3, .L23
	ldr	r3, [r3, #4]
	cmp	r3, #0
	bne	.L21
	.loc 1 66 0 is_stmt 1
	ldr	r3, .L23
	ldr	r2, [r3, #64]
	mov	r3, #15
	add	r3, r7, r3
	strb	r2, [r3]
	.loc 1 68 0
	mov	r3, #15
	add	r3, r7, r3
	ldrb	r3, [r3]
	.loc 1 69 0
	mov	r0, r3
	mov	sp, r7
	add	sp, sp, #16
	@ sp needed
	pop	{r7, pc}
.L24:
	.align	2
.L23:
	.word	1073816576
	.cfi_endproc
.LFE5:
	.size	getPOT, .-getPOT
	.align	2
	.global	display
	.code	16
	.thumb_func
	.type	display, %function
display:
.LFB6:
	.loc 1 71 0
	.cfi_startproc
	push	{r7, lr}
	.cfi_def_cfa_offset 8
	.cfi_offset 7, -8
	.cfi_offset 14, -4
	sub	sp, sp, #8
	.cfi_def_cfa_offset 16
	add	r7, sp, #0
	.cfi_def_cfa_register 7
	str	r0, [r7, #4]
	.loc 1 72 0
	ldr	r3, .L26
	ldr	r2, [r7, #4]
	uxth	r2, r2
	strh	r2, [r3, #20]
	.loc 1 73 0
	mov	sp, r7
	add	sp, sp, #8
	@ sp needed
	pop	{r7, pc}
.L27:
	.align	2
.L26:
	.word	1207960576
	.cfi_endproc
.LFE6:
	.size	display, .-display
	.align	2
	.global	switch_function
	.code	16
	.thumb_func
	.type	switch_function, %function
switch_function:
.LFB7:
	.loc 1 75 0
	.cfi_startproc
	push	{r7, lr}
	.cfi_def_cfa_offset 8
	.cfi_offset 7, -8
	.cfi_offset 14, -4
	sub	sp, sp, #24
	.cfi_def_cfa_offset 32
	add	r7, sp, #0
	.cfi_def_cfa_register 7
	.loc 1 76 0
	mov	r3, #23
	add	r3, r7, r3
	mov	r2, #1
	strb	r2, [r3]
	.loc 1 77 0
	mov	r3, #15
	add	r3, r7, r3
	mov	r2, #0
	strb	r2, [r3]
.L32:
.LBB2:
	.loc 1 80 0
	mov	r3, #144
	lsl	r3, r3, #23
	ldrh	r3, [r3, #16]
	uxth	r3, r3
	str	r3, [r7, #8]
	.loc 1 81 0
	ldr	r3, [r7, #8]
	uxtb	r2, r3
	mov	r3, #15
	add	r3, r7, r3
	mov	r1, #1
	and	r2, r1
	strb	r2, [r3]
	.loc 1 83 0
	mov	r3, #15
	add	r3, r7, r3
	ldrb	r3, [r3]
	cmp	r3, #1
	bne	.L29
	.loc 1 83 0 is_stmt 0 discriminator 1
	mov	r3, #23
	add	r3, r7, r3
	ldrb	r3, [r3]
	cmp	r3, #0
	bne	.L29
	.loc 1 84 0 is_stmt 1
	ldr	r3, .L33
	ldrh	r3, [r3, #16]
	uxth	r2, r3
	add	r3, r7, #7
	strb	r2, [r3]
	.loc 1 85 0
	add	r3, r7, #7
	ldrb	r2, [r3]
	add	r3, r7, #7
	add	r2, r2, #1
	strb	r2, [r3]
	.loc 1 86 0
	ldr	r2, .L33
	add	r3, r7, #7
	ldrb	r3, [r3]
	uxth	r3, r3
	strh	r3, [r2, #20]
.L29:
	.loc 1 88 0
	mov	r3, #23
	add	r3, r7, r3
	mov	r2, #15
	add	r2, r7, r2
	ldrb	r2, [r2]
	strb	r2, [r3]
	.loc 1 90 0
	mov	r3, #0
	str	r3, [r7, #16]
	.loc 1 91 0
	mov	r3, #0
	str	r3, [r7, #16]
	b	.L30
.L31:
	.loc 1 91 0 is_stmt 0 discriminator 3
	ldr	r3, [r7, #16]
	add	r3, r3, #1
	str	r3, [r7, #16]
.L30:
	.loc 1 91 0 discriminator 1
	ldr	r3, [r7, #16]
	ldr	r2, .L33+4
	cmp	r3, r2
	ble	.L31
.LBE2:
	.loc 1 93 0 is_stmt 1
	b	.L32
.L34:
	.align	2
.L33:
	.word	1207960576
	.word	14545
	.cfi_endproc
.LFE7:
	.size	switch_function, .-switch_function
	.align	2
	.global	find_min_max
	.code	16
	.thumb_func
	.type	find_min_max, %function
find_min_max:
.LFB8:
	.loc 1 96 0
	.cfi_startproc
	push	{r7, lr}
	.cfi_def_cfa_offset 8
	.cfi_offset 7, -8
	.cfi_offset 14, -4
	sub	sp, sp, #24
	.cfi_def_cfa_offset 32
	add	r7, sp, #0
	.cfi_def_cfa_register 7
	str	r0, [r7, #12]
	str	r1, [r7, #8]
	str	r2, [r7, #4]
	str	r3, [r7]
	.loc 1 98 0
	ldr	r3, [r7, #4]
	ldr	r2, [r7, #12]
	str	r2, [r3]
	.loc 1 99 0
	ldr	r3, [r7]
	ldr	r2, [r7, #12]
	str	r2, [r3]
	.loc 1 101 0
	mov	r3, #0
	str	r3, [r7, #20]
	.loc 1 102 0
	b	.L36
.L38:
	.loc 1 103 0
	ldr	r3, [r7, #4]
	ldr	r3, [r3]
	ldrb	r2, [r3]
	ldr	r3, [r7, #20]
	ldr	r1, [r7, #12]
	add	r3, r1, r3
	ldrb	r3, [r3]
	cmp	r2, r3
	bcs	.L37
	.loc 1 104 0
	ldr	r3, [r7, #20]
	ldr	r2, [r7, #12]
	add	r2, r2, r3
	ldr	r3, [r7, #4]
	str	r2, [r3]
.L37:
	.loc 1 106 0
	ldr	r3, [r7, #20]
	add	r3, r3, #1
	str	r3, [r7, #20]
.L36:
	.loc 1 102 0
	ldr	r2, [r7, #20]
	ldr	r3, [r7, #8]
	cmp	r2, r3
	blt	.L38
	.loc 1 110 0
	mov	r3, #0
	str	r3, [r7, #20]
	.loc 1 111 0
	b	.L39
.L41:
	.loc 1 112 0
	ldr	r3, [r7]
	ldr	r3, [r3]
	ldrb	r2, [r3]
	ldr	r3, [r7, #20]
	ldr	r1, [r7, #12]
	add	r3, r1, r3
	ldrb	r3, [r3]
	cmp	r2, r3
	bls	.L40
	.loc 1 113 0
	ldr	r3, [r7, #20]
	ldr	r2, [r7, #12]
	add	r2, r2, r3
	ldr	r3, [r7]
	str	r2, [r3]
.L40:
	.loc 1 115 0
	ldr	r3, [r7, #20]
	add	r3, r3, #1
	str	r3, [r7, #20]
.L39:
	.loc 1 111 0
	ldr	r2, [r7, #20]
	ldr	r3, [r7, #8]
	cmp	r2, r3
	blt	.L41
	.loc 1 117 0
	mov	sp, r7
	add	sp, sp, #24
	@ sp needed
	pop	{r7, pc}
	.cfi_endproc
.LFE8:
	.size	find_min_max, .-find_min_max
	.align	2
	.global	get_switch
	.code	16
	.thumb_func
	.type	get_switch, %function
get_switch:
.LFB9:
	.loc 1 120 0
	.cfi_startproc
	push	{r7, lr}
	.cfi_def_cfa_offset 8
	.cfi_offset 7, -8
	.cfi_offset 14, -4
	sub	sp, sp, #8
	.cfi_def_cfa_offset 16
	add	r7, sp, #0
	.cfi_def_cfa_register 7
	.loc 1 122 0
	add	r3, r7, #7
	mov	r2, #0
	strb	r2, [r3]
	.loc 1 123 0
	mov	r3, #144
	lsl	r3, r3, #23
	ldrh	r3, [r3, #16]
	uxth	r3, r3
	uxtb	r2, r3
	add	r3, r7, #7
	mov	r1, #1
	and	r2, r1
	strb	r2, [r3]
	.loc 1 124 0
	add	r3, r7, #7
	ldrb	r3, [r3]
	sxtb	r3, r3
	.loc 1 125 0
	mov	r0, r3
	mov	sp, r7
	add	sp, sp, #8
	@ sp needed
	pop	{r7, pc}
	.cfi_endproc
.LFE9:
	.size	get_switch, .-get_switch
.Letext0:
	.file 2 "/usr/include/newlib/machine/_default_types.h"
	.file 3 "/usr/include/newlib/sys/_stdint.h"
	.file 4 "stm32f0xx.h"