	.cpu cortex-m0
	.fpu softvfp
	.eabi_attribute 20, 1
	.eabi_attribute 21, 1
	.eabi_attribute 23, 3
	.eabi_attribute 24, 1
	.eabi_attribute 25, 1
	.eabi_attribute 26, 1
	.eabi_attribute 30, 6
	.eabi_attribute 34, 0
	.eabi_attribute 18, 4
	.code	16
	.file	"main.c"
	.text
.Ltext0:
	.cfi_sections	.debug_frame
	.global	RCC_AHBENR_IOPBEN
	.data
	.align	2
	.type	RCC_AHBENR_IOPBEN, %object
	.size	RCC_AHBENR_IOPBEN, 4
RCC_AHBENR_IOPBEN:
	.word	393216
	.global	GPIOB_MODER_OUTPUT
	.align	2
	.type	GPIOB_MODER_OUTPUT, %object
	.size	GPIOB_MODER_OUTPUT, 4
GPIOB_MODER_OUTPUT:
	.word	21845
	.global	PORTA_PUPDR
	.align	2
	.type	PORTA_PUPDR, %object
	.size	PORTA_PUPDR, 4
PORTA_PUPDR:
	.word	85
	.global	PORTA_MODERIN
	.align	2
	.type	PORTA_MODERIN, %object
	.size	PORTA_MODERIN, 4
PORTA_MODERIN:
	.word	671088640
	.section	.rodata
	.align	2
.LC0:
	.word	170
	.word	255
	.word	85
	.word	0
	.text
	.align	2
	.global	main
	.code	16
	.thumb_func
	.type	main, %function
main:
.LFB0:
	.file 1 "main.c"
	.loc 1 18 0
	.cfi_startproc
	push	{r4, r7, lr}
	.cfi_def_cfa_offset 12
	.cfi_offset 4, -12
	.cfi_offset 7, -8
	.cfi_offset 14, -4
	sub	sp, sp, #20
	.cfi_def_cfa_offset 32
	add	r7, sp, #0
	.cfi_def_cfa_register 7
	.loc 1 20 0
	ldr	r2, .L3
	ldr	r3, .L3
	ldr	r1, [r3]
	ldr	r3, .L3+4
	ldr	r3, [r3]
	orr	r3, r1
	str	r3, [r2]
	.loc 1 22 0
	ldr	r2, .L3+8
	ldr	r3, .L3+8
	ldr	r1, [r3]
	ldr	r3, .L3+12
	ldr	r3, [r3]
	orr	r3, r1
	str	r3, [r2]
	.loc 1 24 0
	ldr	r2, .L3+16
	ldr	r3, .L3+16
	ldr	r1, [r3]
	ldr	r3, .L3+20
	ldr	r3, [r3]
	orr	r3, r1
	str	r3, [r2]
	.loc 1 25 0
	mov	r3, #144
	lsl	r3, r3, #23
	ldr	r2, .L3+24
	ldr	r2, [r2]
	str	r2, [r3]
	.loc 1 27 0
	ldr	r3, .L3+28
	mov	r2, #170
	str	r2, [r3]
	.loc 1 28 0
	mov	r3, r7
	ldr	r2, .L3+32
	ldmia	r2!, {r0, r1, r4}
	stmia	r3!, {r0, r1, r4}
	ldr	r2, [r2]
	str	r2, [r3]
.L2:
	.loc 1 33 0 discriminator 1
	ldr	r2, .L3+28
	mov	r3, r7
	ldr	r3, [r3]
	str	r3, [r2]
	.loc 1 34 0 discriminator 1
	bl	freeze
	.loc 1 35 0 discriminator 1
	mov	r3, #250
	lsl	r3, r3, #2
	mov	r0, r3
	bl	delay
	.loc 1 36 0 discriminator 1
	ldr	r2, .L3+28
	mov	r3, r7
	ldr	r3, [r3, #4]
	str	r3, [r2]
	.loc 1 37 0 discriminator 1
	bl	freeze
	.loc 1 38 0 discriminator 1
	mov	r3, #250
	lsl	r3, r3, #2
	mov	r0, r3
	bl	delay
	.loc 1 39 0 discriminator 1
	ldr	r2, .L3+28
	mov	r3, r7
	ldr	r3, [r3, #8]
	str	r3, [r2]
	.loc 1 40 0 discriminator 1
	bl	freeze
	.loc 1 41 0 discriminator 1
	mov	r3, #250
	lsl	r3, r3, #2
	mov	r0, r3
	bl	delay
	.loc 1 42 0 discriminator 1
	ldr	r2, .L3+28
	mov	r3, r7
	ldr	r3, [r3, #12]
	str	r3, [r2]
	.loc 1 43 0 discriminator 1
	bl	freeze
	.loc 1 44 0 discriminator 1
	mov	r3, #250
	lsl	r3, r3, #2
	mov	r0, r3
	bl	delay
	.loc 1 45 0 discriminator 1
	b	.L2
.L4:
	.align	2
.L3:
	.word	1073877012
	.word	RCC_AHBENR_IOPBEN
	.word	1207960576
	.word	GPIOB_MODER_OUTPUT
	.word	1207959564
	.word	PORTA_PUPDR
	.word	PORTA_MODERIN
	.word	1207960596
	.word	.LC0
	.cfi_endproc
.LFE0:
	.size	main, .-main
	.align	2
	.global	delay
	.code	16
	.thumb_func
	.type	delay, %function
delay:
.LFB1:
	.loc 1 49 0
	.cfi_startproc
	push	{r7, lr}
	.cfi_def_cfa_offset 8
	.cfi_offset 7, -8
	.cfi_offset 14, -4
	sub	sp, sp, #16
	.cfi_def_cfa_offset 24
	add	r7, sp, #0
	.cfi_def_cfa_register 7
	str	r0, [r7, #4]
	.loc 1 51 0
	ldr	r2, [r7, #4]
	mov	r3, r2
	lsl	r3, r3, #4
	sub	r3, r3, r2
	lsl	r3, r3, #3
	str	r3, [r7, #4]
	.loc 1 53 0
	mov	r3, #0
	str	r3, [r7, #12]
	b	.L6
.L7:
	.loc 1 54 0
	bl	freeze
	.loc 1 55 0
	ldr	r3, [r7, #12]
	add	r3, r3, #1
	str	r3, [r7, #12]
.L6:
	.loc 1 53 0 discriminator 1
	ldr	r2, [r7, #12]
	ldr	r3, [r7, #4]
	cmp	r2, r3
	bls	.L7
	.loc 1 57 0
	mov	sp, r7
	add	sp, sp, #16
	@ sp needed
	pop	{r7, pc}
	.cfi_endproc
.LFE1:
	.size	delay, .-delay
	.align	2
	.global	freeze
	.code	16
	.thumb_func
	.type	freeze, %function
freeze:
.LFB2:
	.loc 1 59 0
	.cfi_startproc
	push	{r7, lr}
	.cfi_def_cfa_offset 8
	.cfi_offset 7, -8
	.cfi_offset 14, -4
	add	r7, sp, #0
	.cfi_def_cfa_register 7
	.loc 1 61 0
	mov	r8, r8
.L9:
	.loc 1 61 0 is_stmt 0 discriminator 1
	bl	get_switch
	sub	r3, r0, #0
	beq	.L9
	.loc 1 63 0 is_stmt 1
	mov	sp, r7
	@ sp needed
	pop	{r7, pc}
	.cfi_endproc
.LFE2:
	.size	freeze, .-freeze
	.align	2
	.global	get_switch
	.code	16
	.thumb_func
	.type	get_switch, %function
get_switch:
.LFB3:
	.loc 1 65 0
	.cfi_startproc
	push	{r7, lr}
	.cfi_def_cfa_offset 8
	.cfi_offset 7, -8
	.cfi_offset 14, -4
	sub	sp, sp, #8
	.cfi_def_cfa_offset 16
	add	r7, sp, #0
	.cfi_def_cfa_register 7
	.loc 1 67 0
	add	r3, r7, #7
	mov	r2, #0
	strb	r2, [r3]
	.loc 1 68 0
	ldr	r3, .L12
	ldr	r3, [r3]
	uxtb	r2, r3
	add	r3, r7, #7
	mov	r1, #2
	and	r2, r1
	strb	r2, [r3]
	.loc 1 69 0
	add	r3, r7, #7
	ldrb	r3, [r3]
	sxtb	r3, r3
	.loc 1 70 0
	mov	r0, r3
	mov	sp, r7
	add	sp, sp, #8
	@ sp needed
	pop	{r7, pc}
.L13:
	.align	2
.L12:
	.word	1207959568
	.cfi_endproc
.LFE3:
	.size	get_switch, .-get_switch
.Letext0:
	.file 2 "/usr/include/newlib/machine/_default_types.h"
	.file 3 "/usr/include/newlib/sys/_stdint.h"